target datalayout = "e-m:e-p270:32:32-p271:32:32-p272:64:64-i64:64-i128:128-f80:128-n8:16:32:64-S128"
target triple = "x86_64-pc-linux-gnu"

%struct.SDL_Surface = type { i32, i32, i32, i32, i32, ptr, i32, ptr, i32, i32, ptr, i32, ptr, i32, ptr, i32, %struct.SDL_Rect, %struct.SDL_BlitMap }
%struct.SDL_Rect = type { i32, i32, i32, i32 }
%struct.SDL_BlitMap = type { i32, ptr, ptr, %struct.SDL_BlitInfo, i32, i32 }
%struct.SDL_BlitInfo = type { ptr, ptr, i32, i32, i32, i32, ptr, ptr, i32, i32, i32, i32, ptr, ptr, ptr, ptr, ptr, ptr, i32, i32, i8, i8, i8, i8 }

@SDL_surface_magic = internal global i8 0, align 1
@.str = private unnamed_addr constant [26 x i8] c"Parameter '%s' is invalid\00", align 1
@.str.5 = private unnamed_addr constant [8 x i8] c"surface\00", align 1

; Function Attrs: nounwind uwtable
define hidden zeroext i1 @SDL_SurfaceValid(ptr noundef %0) #0 {
  %2 = alloca ptr, align 8
  store ptr %0, ptr %2, align 8
  %3 = load ptr, ptr %2, align 8
  %4 = icmp ne ptr %3, null
  br i1 %4, label %5, label %10

5:                                                ; preds = %1
  %6 = load ptr, ptr %2, align 8
  %7 = getelementptr inbounds nuw %struct.SDL_Surface, ptr %6, i32 0, i32 7
  %8 = load ptr, ptr %7, align 8
  %9 = icmp eq ptr %8, @SDL_surface_magic
  br label %10

10:                                               ; preds = %5, %1
  %11 = phi i1 [ false, %1 ], [ %9, %5 ]
  ret i1 %11
}

; Function Attrs: nounwind uwtable
define hidden ptr @SDL_GetSurfaceImages_REAL(ptr noundef %0, ptr noundef %1) #0 {
  %3 = alloca ptr, align 8
  %4 = alloca ptr, align 8
  %5 = alloca ptr, align 8
  %6 = alloca i32, align 4
  %7 = alloca ptr, align 8
  %8 = alloca i32, align 4
  store ptr %0, ptr %4, align 8
  store ptr %1, ptr %5, align 8
  %9 = load ptr, ptr %5, align 8
  %10 = icmp ne ptr %9, null
  br i1 %10, label %11, label %13

11:                                               ; preds = %2
  %12 = load ptr, ptr %5, align 8
  store i32 0, ptr %12, align 4
  br label %13

13:                                               ; preds = %11, %2
  %14 = load ptr, ptr %4, align 8
  %15 = call zeroext i1 @SDL_SurfaceValid(ptr noundef %14)
  br i1 %15, label %18, label %16

16:                                               ; preds = %13
  %17 = call zeroext i1 (ptr, ...) @SDL_SetError_REAL(ptr noundef @.str, ptr noundef @.str.5)
  store ptr null, ptr %3, align 8
  br label %63

18:                                               ; preds = %13
  call void @llvm.lifetime.start.p0(i64 4, ptr %6) #8
  %19 = load ptr, ptr %4, align 8
  %20 = getelementptr inbounds nuw %struct.SDL_Surface, ptr %19, i32 0, i32 13
  %21 = load i32, ptr %20, align 8
  %22 = add nsw i32 1, %21
  store i32 %22, ptr %6, align 4
  call void @llvm.lifetime.start.p0(i64 8, ptr %7) #8
  %23 = load i32, ptr %6, align 4
  %24 = add nsw i32 %23, 1
  %25 = sext i32 %24 to i64
  %26 = mul i64 %25, 8
  %27 = call noalias ptr @SDL_malloc_REAL(i64 noundef %26)
  store ptr %27, ptr %7, align 8
  %28 = load ptr, ptr %7, align 8
  %29 = icmp ne ptr %28, null
  br i1 %29, label %31, label %30

30:                                               ; preds = %18
  store ptr null, ptr %3, align 8
  store i32 1, ptr %8, align 4
  br label %62

31:                                               ; preds = %18
  %32 = load ptr, ptr %4, align 8
  %33 = load ptr, ptr %7, align 8
  %34 = getelementptr inbounds ptr, ptr %33, i64 0
  store ptr %32, ptr %34, align 8
  %35 = load ptr, ptr %4, align 8
  %36 = getelementptr inbounds nuw %struct.SDL_Surface, ptr %35, i32 0, i32 13
  %37 = load i32, ptr %36, align 8
  %38 = icmp sgt i32 %37, 0
  br i1 %38, label %39, label %50

39:                                               ; preds = %31
  %40 = load ptr, ptr %7, align 8
  %41 = getelementptr inbounds ptr, ptr %40, i64 1
  %42 = load ptr, ptr %4, align 8
  %43 = getelementptr inbounds nuw %struct.SDL_Surface, ptr %42, i32 0, i32 14
  %44 = load ptr, ptr %43, align 8
  %45 = load ptr, ptr %4, align 8
  %46 = getelementptr inbounds nuw %struct.SDL_Surface, ptr %45, i32 0, i32 13
  %47 = load i32, ptr %46, align 8
  %48 = sext i32 %47 to i64
  %49 = mul i64 %48, 8
  call void @llvm.memcpy.p0.p0.i64(ptr align 8 %41, ptr align 8 %44, i64 %49, i1 false)
  br label %50

50:                                               ; preds = %39, %31
  %51 = load ptr, ptr %7, align 8
  %52 = load i32, ptr %6, align 4
  %53 = sext i32 %52 to i64
  %54 = getelementptr inbounds ptr, ptr %51, i64 %53
  store ptr null, ptr %54, align 8
  %55 = load ptr, ptr %5, align 8
  %56 = icmp ne ptr %55, null
  br i1 %56, label %57, label %60

57:                                               ; preds = %50
  %58 = load i32, ptr %6, align 4
  %59 = load ptr, ptr %5, align 8
  store i32 %58, ptr %59, align 4
  br label %60

60:                                               ; preds = %57, %50
  %61 = load ptr, ptr %7, align 8
  store ptr %61, ptr %3, align 8
  store i32 1, ptr %8, align 4
  br label %62

62:                                               ; preds = %60, %30
  call void @llvm.lifetime.end.p0(i64 8, ptr %7) #8
  call void @llvm.lifetime.end.p0(i64 4, ptr %6) #8
  br label %63

63:                                               ; preds = %62, %16
  %64 = load ptr, ptr %3, align 8
  ret ptr %64
}