; Function Attrs: nounwind uwtable
define hidden noalias ptr @SDL_GetSurfaceImages_REAL(ptr noundef %0, ptr noundef writeonly captures(address_is_null) %1) local_unnamed_addr #2 {
  %.not = icmp eq ptr %1, null
  br i1 %.not, label %4, label %3

3:                                                ; preds = %2
  store i32 0, ptr %1, align 4
  br label %4

4:                                                ; preds = %3, %2
  %.not.i = icmp eq ptr %0, null
  br i1 %.not.i, label %SDL_SurfaceValid.exit.thread, label %SDL_SurfaceValid.exit

SDL_SurfaceValid.exit:                            ; preds = %4
  %5 = getelementptr inbounds nuw i8, ptr %0, i64 40
  %6 = load ptr, ptr %5, align 8
  %7 = icmp eq ptr %6, @SDL_surface_magic
  br i1 %7, label %9, label %SDL_SurfaceValid.exit.thread

SDL_SurfaceValid.exit.thread:                     ; preds = %4, %SDL_SurfaceValid.exit
  %8 = tail call zeroext i1 (ptr, ...) @SDL_SetError_REAL(ptr noundef nonnull @.str, ptr noundef nonnull @.str.5) #10
  br label %30

9:                                                ; preds = %SDL_SurfaceValid.exit
  %10 = getelementptr inbounds nuw i8, ptr %0, i64 80
  %11 = load i32, ptr %10, align 8
  %12 = add nsw i32 %11, 1
  %13 = add nsw i32 %11, 2
  %14 = sext i32 %13 to i64
  %15 = shl nsw i64 %14, 3
  %16 = tail call noalias ptr @SDL_malloc_REAL(i64 noundef %15) #10
  %.not22 = icmp eq ptr %16, null
  br i1 %.not22, label %30, label %17

17:                                               ; preds = %9
  store ptr %0, ptr %16, align 8
  %18 = load i32, ptr %10, align 8
  %19 = icmp sgt i32 %18, 0
  br i1 %19, label %20, label %26

20:                                               ; preds = %17
  %21 = getelementptr inbounds nuw i8, ptr %16, i64 8
  %22 = getelementptr inbounds nuw i8, ptr %0, i64 88
  %23 = load ptr, ptr %22, align 8
  %24 = zext nneg i32 %18 to i64
  %25 = shl nuw nsw i64 %24, 3
  tail call void @llvm.memcpy.p0.p0.i64(ptr nonnull align 8 %21, ptr align 8 %23, i64 %25, i1 false)
  br label %26

26:                                               ; preds = %20, %17
  %27 = sext i32 %12 to i64
  %28 = getelementptr inbounds ptr, ptr %16, i64 %27
  store ptr null, ptr %28, align 8
  br i1 %.not, label %30, label %29

29:                                               ; preds = %26
  store i32 %12, ptr %1, align 4
  br label %30

30:                                               ; preds = %9, %29, %26, %SDL_SurfaceValid.exit.thread
  %.0 = phi ptr [ null, %SDL_SurfaceValid.exit.thread ], [ null, %9 ], [ %16, %29 ], [ %16, %26 ]
  ret ptr %.0
}